; Function Attrs: mustprogress uwtable
define hidden void @_Z14luaD_growstackP9lua_Statei(ptr noundef %0, i32 noundef %1) local_unnamed_addr #0 {
  %3 = load i8, ptr @_ZN6DFFlag19LuauPopIncompleteCiE, align 8, !tbaa !15, !range !20, !noundef !21
  %4 = trunc nuw i8 %3 to i1
  %5 = getelementptr inbounds nuw i8, ptr %0, i64 72
  %6 = load i32, ptr %5, align 8, !tbaa !39
  %.not16 = icmp sgt i32 %1, %6
  br i1 %4, label %7, label %11

7:                                                ; preds = %2
  %8 = shl nsw i32 %6, 1
  %9 = add nsw i32 %6, %1
  %10 = select i1 %.not16, i32 %9, i32 %8
  br label %16

11:                                               ; preds = %2
  br i1 %.not16, label %14, label %12

12:                                               ; preds = %11
  %13 = shl nsw i32 %6, 1
  br label %16

14:                                               ; preds = %11
  %15 = add nsw i32 %6, %1
  br label %16

16:                                               ; preds = %12, %14, %7
  %.sink = phi i32 [ %13, %12 ], [ %15, %14 ], [ %10, %7 ]
  tail call void @_Z17luaD_reallocstackP9lua_Stateii(ptr noundef %0, i32 noundef %.sink, i32 noundef 0)
  ret void
}